target datalayout = "e-m:e-p270:32:32-p271:32:32-p272:64:64-i64:64-i128:128-f80:128-n8:16:32:64-S128"
target triple = "x86_64-pc-linux-gnu"

%struct.DECODER_CACHE_ENTRY = type { ptr, ptr, ptr, i32, ptr, ptr }

; Function Attrs: inlinehint nounwind uwtable
define internal i32 @nullstrcmp(ptr noundef %0, ptr noundef %1, i32 noundef %2) #3 {
  %4 = alloca i32, align 4
  %5 = alloca ptr, align 8
  %6 = alloca ptr, align 8
  %7 = alloca i32, align 4
  store ptr %0, ptr %5, align 8, !tbaa !8
  store ptr %1, ptr %6, align 8, !tbaa !8
  store i32 %2, ptr %7, align 4, !tbaa !28
  %8 = load ptr, ptr %5, align 8, !tbaa !8
  %9 = icmp eq ptr %8, null
  br i1 %9, label %13, label %10

10:                                               ; preds = %3
  %11 = load ptr, ptr %6, align 8, !tbaa !8
  %12 = icmp eq ptr %11, null
  br i1 %12, label %13, label %22

13:                                               ; preds = %10, %3
  %14 = load ptr, ptr %5, align 8, !tbaa !8
  %15 = icmp eq ptr %14, null
  br i1 %15, label %16, label %21

16:                                               ; preds = %13
  %17 = load ptr, ptr %6, align 8, !tbaa !8
  %18 = icmp eq ptr %17, null
  br i1 %18, label %19, label %20

19:                                               ; preds = %16
  store i32 0, ptr %4, align 4
  br label %33

20:                                               ; preds = %16
  store i32 1, ptr %4, align 4
  br label %33

21:                                               ; preds = %13
  store i32 -1, ptr %4, align 4
  br label %33

22:                                               ; preds = %10
  %23 = load i32, ptr %7, align 4, !tbaa !28
  %24 = icmp ne i32 %23, 0
  br i1 %24, label %25, label %29

25:                                               ; preds = %22
  %26 = load ptr, ptr %5, align 8, !tbaa !8
  %27 = load ptr, ptr %6, align 8, !tbaa !8
  %28 = call i32 @OPENSSL_strcasecmp(ptr noundef %26, ptr noundef %27)
  store i32 %28, ptr %4, align 4
  br label %33

29:                                               ; preds = %22
  %30 = load ptr, ptr %5, align 8, !tbaa !8
  %31 = load ptr, ptr %6, align 8, !tbaa !8
  %32 = call i32 @strcmp(ptr noundef %30, ptr noundef %31) #8
  store i32 %32, ptr %4, align 4
  br label %33

33:                                               ; preds = %29, %25, %21, %20, %19
  %34 = load i32, ptr %4, align 4
  ret i32 %34
}

; Function Attrs: nounwind uwtable
define internal i32 @decoder_cache_entry_cmp(ptr noundef %0, ptr noundef %1) #0 {
  %3 = alloca i32, align 4
  %4 = alloca ptr, align 8
  %5 = alloca ptr, align 8
  %6 = alloca i32, align 4
  %7 = alloca i32, align 4
  store ptr %0, ptr %4, align 8, !tbaa !14
  store ptr %1, ptr %5, align 8, !tbaa !14
  call void @llvm.lifetime.start.p0(i64 4, ptr %6) #7
  %8 = load ptr, ptr %4, align 8, !tbaa !14
  %9 = getelementptr inbounds nuw %struct.DECODER_CACHE_ENTRY, ptr %8, i32 0, i32 3
  %10 = load i32, ptr %9, align 8, !tbaa !27
  %11 = load ptr, ptr %5, align 8, !tbaa !14
  %12 = getelementptr inbounds nuw %struct.DECODER_CACHE_ENTRY, ptr %11, i32 0, i32 3
  %13 = load i32, ptr %12, align 8, !tbaa !27
  %14 = icmp ne i32 %10, %13
  br i1 %14, label %15, label %24

15:                                               ; preds = %2
  %16 = load ptr, ptr %4, align 8, !tbaa !14
  %17 = getelementptr inbounds nuw %struct.DECODER_CACHE_ENTRY, ptr %16, i32 0, i32 3
  %18 = load i32, ptr %17, align 8, !tbaa !27
  %19 = load ptr, ptr %5, align 8, !tbaa !14
  %20 = getelementptr inbounds nuw %struct.DECODER_CACHE_ENTRY, ptr %19, i32 0, i32 3
  %21 = load i32, ptr %20, align 8, !tbaa !27
  %22 = icmp slt i32 %18, %21
  %23 = select i1 %22, i32 -1, i32 1
  store i32 %23, ptr %3, align 4
  store i32 1, ptr %7, align 4
  br label %69

24:                                               ; preds = %2
  %25 = load ptr, ptr %4, align 8, !tbaa !14
  %26 = getelementptr inbounds nuw %struct.DECODER_CACHE_ENTRY, ptr %25, i32 0, i32 2
  %27 = load ptr, ptr %26, align 8, !tbaa !26
  %28 = load ptr, ptr %5, align 8, !tbaa !14
  %29 = getelementptr inbounds nuw %struct.DECODER_CACHE_ENTRY, ptr %28, i32 0, i32 2
  %30 = load ptr, ptr %29, align 8, !tbaa !26
  %31 = call i32 @nullstrcmp(ptr noundef %27, ptr noundef %30, i32 noundef 1)
  store i32 %31, ptr %6, align 4, !tbaa !28
  %32 = load i32, ptr %6, align 4, !tbaa !28
  %33 = icmp ne i32 %32, 0
  br i1 %33, label %34, label %36

34:                                               ; preds = %24
  %35 = load i32, ptr %6, align 4, !tbaa !28
  store i32 %35, ptr %3, align 4
  store i32 1, ptr %7, align 4
  br label %69

36:                                               ; preds = %24
  %37 = load ptr, ptr %4, align 8, !tbaa !14
  %38 = getelementptr inbounds nuw %struct.DECODER_CACHE_ENTRY, ptr %37, i32 0, i32 0
  %39 = load ptr, ptr %38, align 8, !tbaa !25
  %40 = load ptr, ptr %5, align 8, !tbaa !14
  %41 = getelementptr inbounds nuw %struct.DECODER_CACHE_ENTRY, ptr %40, i32 0, i32 0
  %42 = load ptr, ptr %41, align 8, !tbaa !25
  %43 = call i32 @nullstrcmp(ptr noundef %39, ptr noundef %42, i32 noundef 1)
  store i32 %43, ptr %6, align 4, !tbaa !28
  %44 = load i32, ptr %6, align 4, !tbaa !28
  %45 = icmp ne i32 %44, 0
  br i1 %45, label %46, label %48

46:                                               ; preds = %36
  %47 = load i32, ptr %6, align 4, !tbaa !28
  store i32 %47, ptr %3, align 4
  store i32 1, ptr %7, align 4
  br label %69

48:                                               ; preds = %36
  %49 = load ptr, ptr %4, align 8, !tbaa !14
  %50 = getelementptr inbounds nuw %struct.DECODER_CACHE_ENTRY, ptr %49, i32 0, i32 1
  %51 = load ptr, ptr %50, align 8, !tbaa !24
  %52 = load ptr, ptr %5, align 8, !tbaa !14
  %53 = getelementptr inbounds nuw %struct.DECODER_CACHE_ENTRY, ptr %52, i32 0, i32 1
  %54 = load ptr, ptr %53, align 8, !tbaa !24
  %55 = call i32 @nullstrcmp(ptr noundef %51, ptr noundef %54, i32 noundef 1)
  store i32 %55, ptr %6, align 4, !tbaa !28
  %56 = load i32, ptr %6, align 4, !tbaa !28
  %57 = icmp ne i32 %56, 0
  br i1 %57, label %58, label %60

58:                                               ; preds = %48
  %59 = load i32, ptr %6, align 4, !tbaa !28
  store i32 %59, ptr %3, align 4
  store i32 1, ptr %7, align 4
  br label %69

60:                                               ; preds = %48
  %61 = load ptr, ptr %4, align 8, !tbaa !14
  %62 = getelementptr inbounds nuw %struct.DECODER_CACHE_ENTRY, ptr %61, i32 0, i32 4
  %63 = load ptr, ptr %62, align 8, !tbaa !21
  %64 = load ptr, ptr %5, align 8, !tbaa !14
  %65 = getelementptr inbounds nuw %struct.DECODER_CACHE_ENTRY, ptr %64, i32 0, i32 4
  %66 = load ptr, ptr %65, align 8, !tbaa !21
  %67 = call i32 @nullstrcmp(ptr noundef %63, ptr noundef %66, i32 noundef 0)
  store i32 %67, ptr %6, align 4, !tbaa !28
  %68 = load i32, ptr %6, align 4, !tbaa !28
  store i32 %68, ptr %3, align 4
  store i32 1, ptr %7, align 4
  br label %69

69:                                               ; preds = %60, %58, %46, %34, %15
  call void @llvm.lifetime.end.p0(i64 4, ptr %6) #7
  %70 = load i32, ptr %3, align 4
  ret i32 %70
}