; Function Attrs: nounwind uwtable
define internal i32 @decoder_cache_entry_cmp(ptr noundef readonly captures(none) %0, ptr noundef readonly captures(none) %1) #0 {
  %3 = getelementptr inbounds nuw i8, ptr %0, i64 24
  %4 = load i32, ptr %3, align 8, !tbaa !18
  %5 = getelementptr inbounds nuw i8, ptr %1, i64 24
  %6 = load i32, ptr %5, align 8, !tbaa !18
  %.not = icmp eq i32 %4, %6
  br i1 %.not, label %10, label %7

7:                                                ; preds = %2
  %8 = icmp slt i32 %4, %6
  %9 = select i1 %8, i32 -1, i32 1
  br label %nullstrcmp.exit44

10:                                               ; preds = %2
  %11 = getelementptr inbounds nuw i8, ptr %0, i64 16
  %12 = load ptr, ptr %11, align 8, !tbaa !17
  %13 = getelementptr inbounds nuw i8, ptr %1, i64 16
  %14 = load ptr, ptr %13, align 8, !tbaa !17
  %15 = icmp eq ptr %12, null
  %16 = icmp eq ptr %14, null
  %or.cond.i = or i1 %15, %16
  br i1 %or.cond.i, label %17, label %18

17:                                               ; preds = %10
  %not..i = xor i1 %16, true
  %..i = zext i1 %not..i to i32
  br i1 %15, label %nullstrcmp.exit, label %nullstrcmp.exit44

18:                                               ; preds = %10
  %19 = tail call i32 @OPENSSL_strcasecmp(ptr noundef nonnull %12, ptr noundef nonnull %14) #7
  br label %nullstrcmp.exit

nullstrcmp.exit:                                  ; preds = %17, %18
  %.0.i = phi i32 [ %19, %18 ], [ %..i, %17 ]
  %.not24 = icmp eq i32 %.0.i, 0
  br i1 %.not24, label %20, label %nullstrcmp.exit44

20:                                               ; preds = %nullstrcmp.exit
  %21 = load ptr, ptr %0, align 8, !tbaa !16
  %22 = load ptr, ptr %1, align 8, !tbaa !16
  %23 = icmp eq ptr %21, null
  %24 = icmp eq ptr %22, null
  %or.cond.i27 = or i1 %23, %24
  br i1 %or.cond.i27, label %25, label %26

25:                                               ; preds = %20
  %not..i29 = xor i1 %24, true
  %..i30 = zext i1 %not..i29 to i32
  br i1 %23, label %nullstrcmp.exit32, label %nullstrcmp.exit44

26:                                               ; preds = %20
  %27 = tail call i32 @OPENSSL_strcasecmp(ptr noundef nonnull %21, ptr noundef nonnull %22) #7
  br label %nullstrcmp.exit32

nullstrcmp.exit32:                                ; preds = %25, %26
  %.0.i28 = phi i32 [ %27, %26 ], [ %..i30, %25 ]
  %.not25 = icmp eq i32 %.0.i28, 0
  br i1 %.not25, label %28, label %nullstrcmp.exit44

28:                                               ; preds = %nullstrcmp.exit32
  %29 = getelementptr inbounds nuw i8, ptr %0, i64 8
  %30 = load ptr, ptr %29, align 8, !tbaa !15
  %31 = getelementptr inbounds nuw i8, ptr %1, i64 8
  %32 = load ptr, ptr %31, align 8, !tbaa !15
  %33 = icmp eq ptr %30, null
  %34 = icmp eq ptr %32, null
  %or.cond.i33 = or i1 %33, %34
  br i1 %or.cond.i33, label %35, label %36

35:                                               ; preds = %28
  %not..i35 = xor i1 %34, true
  %..i36 = zext i1 %not..i35 to i32
  br i1 %33, label %nullstrcmp.exit38, label %nullstrcmp.exit44

36:                                               ; preds = %28
  %37 = tail call i32 @OPENSSL_strcasecmp(ptr noundef nonnull %30, ptr noundef nonnull %32) #7
  br label %nullstrcmp.exit38

nullstrcmp.exit38:                                ; preds = %35, %36
  %.0.i34 = phi i32 [ %37, %36 ], [ %..i36, %35 ]
  %.not26 = icmp eq i32 %.0.i34, 0
  br i1 %.not26, label %38, label %nullstrcmp.exit44

38:                                               ; preds = %nullstrcmp.exit38
  %39 = getelementptr inbounds nuw i8, ptr %0, i64 32
  %40 = load ptr, ptr %39, align 8, !tbaa !10
  %41 = getelementptr inbounds nuw i8, ptr %1, i64 32
  %42 = load ptr, ptr %41, align 8, !tbaa !10
  %43 = icmp eq ptr %40, null
  %44 = icmp eq ptr %42, null
  %or.cond.i39 = or i1 %43, %44
  br i1 %or.cond.i39, label %45, label %46

45:                                               ; preds = %38
  %not..i41 = xor i1 %44, true
  %..i42 = zext i1 %not..i41 to i32
  %spec.select.i43 = select i1 %43, i32 %..i42, i32 -1
  br label %nullstrcmp.exit44

46:                                               ; preds = %38
  %47 = tail call i32 @strcmp(ptr noundef nonnull dereferenceable(1) %40, ptr noundef nonnull dereferenceable(1) %42) #8
  br label %nullstrcmp.exit44

nullstrcmp.exit44:                                ; preds = %35, %25, %17, %46, %45, %nullstrcmp.exit38, %nullstrcmp.exit32, %nullstrcmp.exit, %7
  %.0 = phi i32 [ %9, %7 ], [ %.0.i, %nullstrcmp.exit ], [ %.0.i28, %nullstrcmp.exit32 ], [ %.0.i34, %nullstrcmp.exit38 ], [ %47, %46 ], [ %spec.select.i43, %45 ], [ -1, %17 ], [ -1, %25 ], [ -1, %35 ]
  ret i32 %.0
}